target datalayout = "e-m:e-p270:32:32-p271:32:32-p272:64:64-i64:64-i128:128-f80:128-n8:16:32:64-S128"
target triple = "x86_64-pc-linux-gnu"

%struct.AVFormatContext = type { ptr, ptr, ptr, ptr, ptr, i32, i32, ptr, i32, ptr, i32, ptr, ptr, i64, i64, i64, i32, i32, i32, i64, i64, ptr, i32, i32, ptr, i32, i32, i32, i32, ptr, i64, i32, i32, %struct.AVIOInterruptCB, i32, i32, i32, i32, i64, i32, i32, i32, i32, i32, i32, i32, i32, i32, i32, i32, i32, i64, i32, i32, i32, i32, i32, ptr, ptr, ptr, ptr, i32, ptr, ptr, ptr, ptr, i32, ptr, ptr, i64, ptr, ptr, ptr, i64 }
%struct.AVIOInterruptCB = type { ptr, ptr }
%struct.WebMChunkContext = type { ptr, ptr, i32, i32, ptr, i64, i64, ptr, i32 }
%struct.AVStream = type { ptr, i32, i32, ptr, ptr, %struct.AVRational, i64, i64, i64, i32, i32, %struct.AVRational, ptr, %struct.AVRational, %struct.AVPacket, i32, %struct.AVRational, i32 }
%struct.AVPacket = type { ptr, i64, i64, ptr, i32, i32, i32, ptr, i32, i64, i64, ptr, ptr, %struct.AVRational }
%struct.AVRational = type { i32, i32 }
%struct.AVIOContext = type { ptr, ptr, i32, ptr, ptr, ptr, ptr, ptr, ptr, i64, i32, i32, i32, i32, i32, i64, ptr, ptr, ptr, ptr, i32, i32, ptr, ptr, ptr, i32, ptr, i64, i64 }
%struct.FFFormatContext = type { %struct.AVFormatContext, i32, %struct.PacketList, i64, ptr, ptr, i32, ptr, i32 }
%struct.PacketList = type { ptr, ptr }

@.str.2 = private unnamed_addr constant [11 x i8] c"video/webm\00", align 1
@.str.11 = private unnamed_addr constant [7 x i8] c"method\00", align 1
@.str.15 = private unnamed_addr constant [29 x i8] c"No header filename provided\0A\00", align 1
@.str.16 = private unnamed_addr constant [5 x i8] c"webm\00", align 1
@.str.17 = private unnamed_addr constant [5 x i8] c"dash\00", align 1
@.str.18 = private unnamed_addr constant [19 x i8] c"cluster_time_limit\00", align 1
@.str.19 = private unnamed_addr constant [5 x i8] c"live\00", align 1

; Function Attrs: alwaysinline nounwind uwtable
define internal ptr @ffformatcontext(ptr noundef %0) #3 {
  %2 = alloca ptr, align 8
  store ptr %0, ptr %2, align 8, !tbaa !4
  %3 = load ptr, ptr %2, align 8, !tbaa !4
  ret ptr %3
}

; Function Attrs: nounwind uwtable
define internal i32 @webm_chunk_init(ptr noundef %0) #0 {
  %2 = alloca i32, align 4
  %3 = alloca ptr, align 8
  %4 = alloca ptr, align 8
  %5 = alloca ptr, align 8
  %6 = alloca ptr, align 8
  %7 = alloca ptr, align 8
  %8 = alloca ptr, align 8
  %9 = alloca ptr, align 8
  %10 = alloca i32, align 4
  %11 = alloca i32, align 4
  store ptr %0, ptr %3, align 8, !tbaa !4
  call void @llvm.lifetime.start.p0(i64 8, ptr %4) #6
  %12 = load ptr, ptr %3, align 8, !tbaa !4
  %13 = getelementptr inbounds nuw %struct.AVFormatContext, ptr %12, i32 0, i32 3
  %14 = load ptr, ptr %13, align 8, !tbaa !9
  store ptr %14, ptr %4, align 8, !tbaa !26
  call void @llvm.lifetime.start.p0(i64 8, ptr %5) #6
  call void @llvm.lifetime.start.p0(i64 8, ptr %6) #6
  call void @llvm.lifetime.start.p0(i64 8, ptr %7) #6
  call void @llvm.lifetime.start.p0(i64 8, ptr %8) #6
  %15 = load ptr, ptr %3, align 8, !tbaa !4
  %16 = getelementptr inbounds nuw %struct.AVFormatContext, ptr %15, i32 0, i32 7
  %17 = load ptr, ptr %16, align 8, !tbaa !30
  %18 = getelementptr inbounds ptr, ptr %17, i64 0
  %19 = load ptr, ptr %18, align 8, !tbaa !31
  store ptr %19, ptr %8, align 8, !tbaa !31
  call void @llvm.lifetime.start.p0(i64 8, ptr %9) #6
  store ptr null, ptr %9, align 8, !tbaa !68
  call void @llvm.lifetime.start.p0(i64 4, ptr %10) #6
  %20 = load ptr, ptr %3, align 8, !tbaa !4
  %21 = getelementptr inbounds nuw %struct.AVFormatContext, ptr %20, i32 0, i32 6
  %22 = load i32, ptr %21, align 4, !tbaa !69
  %23 = icmp ne i32 %22, 1
  br i1 %23, label %24, label %25

24:                                               ; preds = %1
  store i32 -22, ptr %2, align 4
  store i32 1, ptr %11, align 4
  br label %189

25:                                               ; preds = %1
  %26 = load ptr, ptr %4, align 8, !tbaa !26
  %27 = getelementptr inbounds nuw %struct.WebMChunkContext, ptr %26, i32 0, i32 1
  %28 = load ptr, ptr %27, align 8, !tbaa !70
  %29 = icmp ne ptr %28, null
  br i1 %29, label %32, label %30

30:                                               ; preds = %25
  %31 = load ptr, ptr %3, align 8, !tbaa !4
  call void (ptr, i32, ptr, ...) @av_log(ptr noundef %31, i32 noundef 16, ptr noundef @.str.15)
  store i32 -22, ptr %2, align 4
  store i32 1, ptr %11, align 4
  br label %189

32:                                               ; preds = %25
  %33 = load ptr, ptr %4, align 8, !tbaa !26
  %34 = getelementptr inbounds nuw %struct.WebMChunkContext, ptr %33, i32 0, i32 6
  store i64 -9223372036854775808, ptr %34, align 8, !tbaa !60
  %35 = load ptr, ptr %3, align 8, !tbaa !4
  %36 = getelementptr inbounds nuw %struct.AVFormatContext, ptr %35, i32 0, i32 12
  %37 = load ptr, ptr %36, align 8, !tbaa !71
  %38 = call ptr @av_guess_format(ptr noundef @.str.16, ptr noundef %37, ptr noundef @.str.2)
  store ptr %38, ptr %5, align 8, !tbaa !72
  %39 = load ptr, ptr %5, align 8, !tbaa !72
  %40 = icmp ne ptr %39, null
  br i1 %40, label %42, label %41

41:                                               ; preds = %32
  store i32 -1481985528, ptr %2, align 4
  store i32 1, ptr %11, align 4
  br label %189

42:                                               ; preds = %32
  %43 = load ptr, ptr %4, align 8, !tbaa !26
  %44 = getelementptr inbounds nuw %struct.WebMChunkContext, ptr %43, i32 0, i32 7
  %45 = load ptr, ptr %5, align 8, !tbaa !72
  %46 = call i32 @avformat_alloc_output_context2(ptr noundef %44, ptr noundef %45, ptr noundef null, ptr noundef null)
  store i32 %46, ptr %10, align 4, !tbaa !33
  %47 = load i32, ptr %10, align 4, !tbaa !33
  %48 = icmp slt i32 %47, 0
  br i1 %48, label %49, label %51

49:                                               ; preds = %42
  %50 = load i32, ptr %10, align 4, !tbaa !33
  store i32 %50, ptr %2, align 4
  store i32 1, ptr %11, align 4
  br label %189

51:                                               ; preds = %42
  %52 = load ptr, ptr %4, align 8, !tbaa !26
  %53 = getelementptr inbounds nuw %struct.WebMChunkContext, ptr %52, i32 0, i32 7
  %54 = load ptr, ptr %53, align 8, !tbaa !28
  store ptr %54, ptr %6, align 8, !tbaa !4
  %55 = load ptr, ptr %6, align 8, !tbaa !4
  %56 = load ptr, ptr %4, align 8, !tbaa !26
  %57 = getelementptr inbounds nuw %struct.WebMChunkContext, ptr %56, i32 0, i32 1
  %58 = load ptr, ptr %57, align 8, !tbaa !70
  call void @ff_format_set_url(ptr noundef %55, ptr noundef %58)
  %59 = load ptr, ptr %4, align 8, !tbaa !26
  %60 = getelementptr inbounds nuw %struct.WebMChunkContext, ptr %59, i32 0, i32 1
  store ptr null, ptr %60, align 8, !tbaa !70
  %61 = load ptr, ptr %6, align 8, !tbaa !4
  %62 = getelementptr inbounds nuw %struct.AVFormatContext, ptr %61, i32 0, i32 33
  %63 = load ptr, ptr %3, align 8, !tbaa !4
  %64 = getelementptr inbounds nuw %struct.AVFormatContext, ptr %63, i32 0, i32 33
  call void @llvm.memcpy.p0.p0.i64(ptr align 8 %62, ptr align 8 %64, i64 16, i1 false), !tbaa.struct !73
  %65 = load ptr, ptr %3, align 8, !tbaa !4
  %66 = getelementptr inbounds nuw %struct.AVFormatContext, ptr %65, i32 0, i32 17
  %67 = load i32, ptr %66, align 4, !tbaa !75
  %68 = load ptr, ptr %6, align 8, !tbaa !4
  %69 = getelementptr inbounds nuw %struct.AVFormatContext, ptr %68, i32 0, i32 17
  store i32 %67, ptr %69, align 4, !tbaa !75
  %70 = load ptr, ptr %3, align 8, !tbaa !4
  %71 = getelementptr inbounds nuw %struct.AVFormatContext, ptr %70, i32 0, i32 18
  %72 = load i32, ptr %71, align 8, !tbaa !76
  %73 = and i32 %72, -513
  %74 = load ptr, ptr %6, align 8, !tbaa !4
  %75 = getelementptr inbounds nuw %struct.AVFormatContext, ptr %74, i32 0, i32 18
  store i32 %73, ptr %75, align 8, !tbaa !76
  %76 = load ptr, ptr %3, align 8, !tbaa !4
  %77 = getelementptr inbounds nuw %struct.AVFormatContext, ptr %76, i32 0, i32 43
  %78 = load i32, ptr %77, align 8, !tbaa !77
  %79 = load ptr, ptr %6, align 8, !tbaa !4
  %80 = getelementptr inbounds nuw %struct.AVFormatContext, ptr %79, i32 0, i32 43
  store i32 %78, ptr %80, align 8, !tbaa !77
  %81 = load ptr, ptr %3, align 8, !tbaa !4
  %82 = getelementptr inbounds nuw %struct.AVFormatContext, ptr %81, i32 0, i32 45
  %83 = load i32, ptr %82, align 8, !tbaa !78
  %84 = load ptr, ptr %6, align 8, !tbaa !4
  %85 = getelementptr inbounds nuw %struct.AVFormatContext, ptr %84, i32 0, i32 45
  store i32 %83, ptr %85, align 8, !tbaa !78
  %86 = load ptr, ptr %6, align 8, !tbaa !4
  %87 = getelementptr inbounds nuw %struct.AVFormatContext, ptr %86, i32 0, i32 54
  store i32 0, ptr %87, align 8, !tbaa !79
  %88 = load ptr, ptr %6, align 8, !tbaa !4
  %89 = getelementptr inbounds nuw %struct.AVFormatContext, ptr %88, i32 0, i32 29
  %90 = load ptr, ptr %3, align 8, !tbaa !4
  %91 = getelementptr inbounds nuw %struct.AVFormatContext, ptr %90, i32 0, i32 29
  %92 = load ptr, ptr %91, align 8, !tbaa !80
  %93 = call i32 @av_dict_copy(ptr noundef %89, ptr noundef %92, i32 noundef 0)
  store i32 %93, ptr %10, align 4, !tbaa !33
  %94 = icmp slt i32 %93, 0
  br i1 %94, label %95, label %97

95:                                               ; preds = %51
  %96 = load i32, ptr %10, align 4, !tbaa !33
  store i32 %96, ptr %2, align 4
  store i32 1, ptr %11, align 4
  br label %189

97:                                               ; preds = %51
  %98 = load ptr, ptr %6, align 8, !tbaa !4
  %99 = load ptr, ptr %8, align 8, !tbaa !31
  %100 = call ptr @ff_stream_clone(ptr noundef %98, ptr noundef %99)
  store ptr %100, ptr %7, align 8, !tbaa !31
  %101 = load ptr, ptr %7, align 8, !tbaa !31
  %102 = icmp ne ptr %101, null
  br i1 %102, label %104, label %103

103:                                              ; preds = %97
  store i32 -12, ptr %2, align 4
  store i32 1, ptr %11, align 4
  br label %189

104:                                              ; preds = %97
  %105 = load ptr, ptr %4, align 8, !tbaa !26
  %106 = getelementptr inbounds nuw %struct.WebMChunkContext, ptr %105, i32 0, i32 4
  %107 = load ptr, ptr %106, align 8, !tbaa !81
  %108 = icmp ne ptr %107, null
  br i1 %108, label %109, label %118

109:                                              ; preds = %104
  %110 = load ptr, ptr %4, align 8, !tbaa !26
  %111 = getelementptr inbounds nuw %struct.WebMChunkContext, ptr %110, i32 0, i32 4
  %112 = load ptr, ptr %111, align 8, !tbaa !81
  %113 = call i32 @av_dict_set(ptr noundef %9, ptr noundef @.str.11, ptr noundef %112, i32 noundef 0)
  store i32 %113, ptr %10, align 4, !tbaa !33
  %114 = icmp slt i32 %113, 0
  br i1 %114, label %115, label %117

115:                                              ; preds = %109
  %116 = load i32, ptr %10, align 4, !tbaa !33
  store i32 %116, ptr %2, align 4
  store i32 1, ptr %11, align 4
  br label %189

117:                                              ; preds = %109
  br label %118

118:                                              ; preds = %117, %104
  %119 = load ptr, ptr %3, align 8, !tbaa !4
  %120 = getelementptr inbounds nuw %struct.AVFormatContext, ptr %119, i32 0, i32 71
  %121 = load ptr, ptr %120, align 8, !tbaa !82
  %122 = load ptr, ptr %3, align 8, !tbaa !4
  %123 = load ptr, ptr %6, align 8, !tbaa !4
  %124 = getelementptr inbounds nuw %struct.AVFormatContext, ptr %123, i32 0, i32 4
  %125 = load ptr, ptr %6, align 8, !tbaa !4
  %126 = getelementptr inbounds nuw %struct.AVFormatContext, ptr %125, i32 0, i32 12
  %127 = load ptr, ptr %126, align 8, !tbaa !71
  %128 = call i32 %121(ptr noundef %122, ptr noundef %124, ptr noundef %127, i32 noundef 2, ptr noundef %9)
  store i32 %128, ptr %10, align 4, !tbaa !33
  call void @av_dict_free(ptr noundef %9)
  %129 = load i32, ptr %10, align 4, !tbaa !33
  %130 = icmp slt i32 %129, 0
  br i1 %130, label %131, label %133

131:                                              ; preds = %118
  %132 = load i32, ptr %10, align 4, !tbaa !33
  store i32 %132, ptr %2, align 4
  store i32 1, ptr %11, align 4
  br label %189

133:                                              ; preds = %118
  %134 = load ptr, ptr %6, align 8, !tbaa !4
  %135 = getelementptr inbounds nuw %struct.AVFormatContext, ptr %134, i32 0, i32 4
  %136 = load ptr, ptr %135, align 8, !tbaa !65
  %137 = getelementptr inbounds nuw %struct.AVIOContext, ptr %136, i32 0, i32 20
  store i32 0, ptr %137, align 8, !tbaa !83
  %138 = call i32 @av_dict_set_int(ptr noundef %9, ptr noundef @.str.17, i64 noundef 1, i32 noundef 0)
  store i32 %138, ptr %10, align 4, !tbaa !33
  %139 = icmp slt i32 %138, 0
  br i1 %139, label %150, label %140

140:                                              ; preds = %133
  %141 = load ptr, ptr %4, align 8, !tbaa !26
  %142 = getelementptr inbounds nuw %struct.WebMChunkContext, ptr %141, i32 0, i32 2
  %143 = load i32, ptr %142, align 8, !tbaa !67
  %144 = sext i32 %143 to i64
  %145 = call i32 @av_dict_set_int(ptr noundef %9, ptr noundef @.str.18, i64 noundef %144, i32 noundef 0)
  store i32 %145, ptr %10, align 4, !tbaa !33
  %146 = icmp slt i32 %145, 0
  br i1 %146, label %150, label %147

147:                                              ; preds = %140
  %148 = call i32 @av_dict_set_int(ptr noundef %9, ptr noundef @.str.19, i64 noundef 1, i32 noundef 0)
  store i32 %148, ptr %10, align 4, !tbaa !33
  %149 = icmp slt i32 %148, 0
  br i1 %149, label %150, label %151

150:                                              ; preds = %147, %140, %133
  br label %154

151:                                              ; preds = %147
  %152 = load ptr, ptr %6, align 8, !tbaa !4
  %153 = call i32 @avformat_init_output(ptr noundef %152, ptr noundef %9)
  store i32 %153, ptr %10, align 4, !tbaa !33
  br label %154

154:                                              ; preds = %151, %150
  call void @av_dict_free(ptr noundef %9)
  %155 = load i32, ptr %10, align 4, !tbaa !33
  %156 = icmp slt i32 %155, 0
  br i1 %156, label %157, label %159

157:                                              ; preds = %154
  %158 = load i32, ptr %10, align 4, !tbaa !33
  store i32 %158, ptr %2, align 4
  store i32 1, ptr %11, align 4
  br label %189

159:                                              ; preds = %154
  %160 = load ptr, ptr %8, align 8, !tbaa !31
  %161 = load ptr, ptr %7, align 8, !tbaa !31
  %162 = getelementptr inbounds nuw %struct.AVStream, ptr %161, i32 0, i32 17
  %163 = load i32, ptr %162, align 4, !tbaa !85
  %164 = load ptr, ptr %7, align 8, !tbaa !31
  %165 = getelementptr inbounds nuw %struct.AVStream, ptr %164, i32 0, i32 5
  %166 = getelementptr inbounds nuw %struct.AVRational, ptr %165, i32 0, i32 0
  %167 = load i32, ptr %166, align 8, !tbaa !86
  %168 = load ptr, ptr %7, align 8, !tbaa !31
  %169 = getelementptr inbounds nuw %struct.AVStream, ptr %168, i32 0, i32 5
  %170 = getelementptr inbounds nuw %struct.AVRational, ptr %169, i32 0, i32 1
  %171 = load i32, ptr %170, align 4, !tbaa !87
  call void @avpriv_set_pts_info(ptr noundef %160, i32 noundef %163, i32 noundef %167, i32 noundef %171)
  %172 = load ptr, ptr %6, align 8, !tbaa !4
  %173 = getelementptr inbounds nuw %struct.AVFormatContext, ptr %172, i32 0, i32 45
  %174 = load i32, ptr %173, align 8, !tbaa !78
  %175 = load ptr, ptr %3, align 8, !tbaa !4
  %176 = getelementptr inbounds nuw %struct.AVFormatContext, ptr %175, i32 0, i32 45
  store i32 %174, ptr %176, align 8, !tbaa !78
  %177 = load ptr, ptr %6, align 8, !tbaa !4
  %178 = call ptr @ffformatcontext(ptr noundef %177)
  %179 = getelementptr inbounds nuw %struct.FFFormatContext, ptr %178, i32 0, i32 6
  %180 = load i32, ptr %179, align 8, !tbaa !88
  %181 = load ptr, ptr %3, align 8, !tbaa !4
  %182 = call ptr @ffformatcontext(ptr noundef %181)
  %183 = getelementptr inbounds nuw %struct.FFFormatContext, ptr %182, i32 0, i32 6
  store i32 %180, ptr %183, align 8, !tbaa !88
  %184 = load ptr, ptr %6, align 8, !tbaa !4
  %185 = getelementptr inbounds nuw %struct.AVFormatContext, ptr %184, i32 0, i32 45
  store i32 0, ptr %185, align 8, !tbaa !78
  %186 = load ptr, ptr %6, align 8, !tbaa !4
  %187 = call ptr @ffformatcontext(ptr noundef %186)
  %188 = getelementptr inbounds nuw %struct.FFFormatContext, ptr %187, i32 0, i32 1
  store i32 -1, ptr %188, align 8, !tbaa !91
  store i32 0, ptr %2, align 4
  store i32 1, ptr %11, align 4
  br label %189

189:                                              ; preds = %159, %157, %131, %115, %103, %95, %49, %41, %30, %24
  call void @llvm.lifetime.end.p0(i64 4, ptr %10) #6
  call void @llvm.lifetime.end.p0(i64 8, ptr %9) #6
  call void @llvm.lifetime.end.p0(i64 8, ptr %8) #6
  call void @llvm.lifetime.end.p0(i64 8, ptr %7) #6
  call void @llvm.lifetime.end.p0(i64 8, ptr %6) #6
  call void @llvm.lifetime.end.p0(i64 8, ptr %5) #6
  call void @llvm.lifetime.end.p0(i64 8, ptr %4) #6
  %190 = load i32, ptr %2, align 4
  ret i32 %190
}