; Function Attrs: nounwind uwtable
define internal range(i32 -2147483648, 1) i32 @webm_chunk_init(ptr noundef %0) #0 {
  %2 = alloca ptr, align 8
  %3 = getelementptr inbounds nuw i8, ptr %0, i64 24
  %4 = load ptr, ptr %3, align 8, !tbaa !4
  %5 = getelementptr inbounds nuw i8, ptr %0, i64 48
  %6 = load ptr, ptr %5, align 8, !tbaa !27
  %7 = load ptr, ptr %6, align 8, !tbaa !28
  call void @llvm.lifetime.start.p0(i64 8, ptr nonnull %2) #6
  store ptr null, ptr %2, align 8, !tbaa !61
  %8 = getelementptr inbounds nuw i8, ptr %0, i64 44
  %9 = load i32, ptr %8, align 4, !tbaa !62
  %.not = icmp eq i32 %9, 1
  br i1 %.not, label %10, label %92

10:                                               ; preds = %1
  %11 = getelementptr inbounds nuw i8, ptr %4, i64 8
  %12 = load ptr, ptr %11, align 8, !tbaa !63
  %.not68 = icmp eq ptr %12, null
  br i1 %.not68, label %13, label %14

13:                                               ; preds = %10
  tail call void (ptr, i32, ptr, ...) @av_log(ptr noundef nonnull %0, i32 noundef 16, ptr noundef nonnull @.str.15) #6
  br label %92

14:                                               ; preds = %10
  %15 = getelementptr inbounds nuw i8, ptr %4, i64 40
  store i64 -9223372036854775808, ptr %15, align 8, !tbaa !54
  %16 = getelementptr inbounds nuw i8, ptr %0, i64 88
  %17 = load ptr, ptr %16, align 8, !tbaa !64
  %18 = tail call ptr @av_guess_format(ptr noundef nonnull @.str.16, ptr noundef %17, ptr noundef nonnull @.str.2) #6
  %.not69 = icmp eq ptr %18, null
  br i1 %.not69, label %92, label %19

19:                                               ; preds = %14
  %20 = getelementptr inbounds nuw i8, ptr %4, i64 48
  %21 = tail call i32 @avformat_alloc_output_context2(ptr noundef nonnull %20, ptr noundef nonnull %18, ptr noundef null, ptr noundef null) #6
  %22 = icmp slt i32 %21, 0
  br i1 %22, label %92, label %23

23:                                               ; preds = %19
  %24 = load ptr, ptr %20, align 8, !tbaa !24
  %25 = load ptr, ptr %11, align 8, !tbaa !63
  tail call void @ff_format_set_url(ptr noundef %24, ptr noundef %25) #6
  store ptr null, ptr %11, align 8, !tbaa !63
  %26 = getelementptr inbounds nuw i8, ptr %24, i64 216
  %27 = getelementptr inbounds nuw i8, ptr %0, i64 216
  tail call void @llvm.memcpy.p0.p0.i64(ptr noundef nonnull align 8 dereferenceable(16) %26, ptr noundef nonnull align 8 dereferenceable(16) %27, i64 16, i1 false), !tbaa.struct !65
  %28 = getelementptr inbounds nuw i8, ptr %0, i64 124
  %29 = load i32, ptr %28, align 4, !tbaa !67
  %30 = getelementptr inbounds nuw i8, ptr %24, i64 124
  store i32 %29, ptr %30, align 4, !tbaa !67
  %31 = getelementptr inbounds nuw i8, ptr %0, i64 128
  %32 = load i32, ptr %31, align 8, !tbaa !68
  %33 = and i32 %32, -513
  %34 = getelementptr inbounds nuw i8, ptr %24, i64 128
  store i32 %33, ptr %34, align 8, !tbaa !68
  %35 = getelementptr inbounds nuw i8, ptr %0, i64 272
  %36 = load i32, ptr %35, align 8, !tbaa !69
  %37 = getelementptr inbounds nuw i8, ptr %24, i64 272
  store i32 %36, ptr %37, align 8, !tbaa !69
  %38 = getelementptr inbounds nuw i8, ptr %0, i64 280
  %39 = load i32, ptr %38, align 8, !tbaa !70
  %40 = getelementptr inbounds nuw i8, ptr %24, i64 280
  store i32 %39, ptr %40, align 8, !tbaa !70
  %41 = getelementptr inbounds nuw i8, ptr %24, i64 320
  store i32 0, ptr %41, align 8, !tbaa !71
  %42 = getelementptr inbounds nuw i8, ptr %24, i64 192
  %43 = getelementptr inbounds nuw i8, ptr %0, i64 192
  %44 = load ptr, ptr %43, align 8, !tbaa !72
  %45 = tail call i32 @av_dict_copy(ptr noundef nonnull %42, ptr noundef %44, i32 noundef 0) #6
  %46 = icmp slt i32 %45, 0
  br i1 %46, label %92, label %47

47:                                               ; preds = %23
  %48 = tail call ptr @ff_stream_clone(ptr noundef nonnull %24, ptr noundef %7) #6
  %.not70 = icmp eq ptr %48, null
  br i1 %.not70, label %92, label %49

49:                                               ; preds = %47
  %50 = getelementptr inbounds nuw i8, ptr %4, i64 24
  %51 = load ptr, ptr %50, align 8, !tbaa !73
  %.not71 = icmp eq ptr %51, null
  br i1 %.not71, label %55, label %52

52:                                               ; preds = %49
  %53 = call i32 @av_dict_set(ptr noundef nonnull %2, ptr noundef nonnull @.str.11, ptr noundef nonnull %51, i32 noundef 0) #6
  %54 = icmp slt i32 %53, 0
  br i1 %54, label %92, label %55

55:                                               ; preds = %52, %49
  %56 = getelementptr inbounds nuw i8, ptr %0, i64 448
  %57 = load ptr, ptr %56, align 8, !tbaa !74
  %58 = getelementptr inbounds nuw i8, ptr %24, i64 32
  %59 = getelementptr inbounds nuw i8, ptr %24, i64 88
  %60 = load ptr, ptr %59, align 8, !tbaa !64
  %61 = call i32 %57(ptr noundef nonnull %0, ptr noundef nonnull %58, ptr noundef %60, i32 noundef 2, ptr noundef nonnull %2) #6
  call void @av_dict_free(ptr noundef nonnull %2) #6
  %62 = icmp slt i32 %61, 0
  br i1 %62, label %92, label %63

63:                                               ; preds = %55
  %64 = load ptr, ptr %58, align 8, !tbaa !57
  %65 = getelementptr inbounds nuw i8, ptr %64, i64 144
  store i32 0, ptr %65, align 8, !tbaa !75
  %66 = call i32 @av_dict_set_int(ptr noundef nonnull %2, ptr noundef nonnull @.str.17, i64 noundef 1, i32 noundef 0) #6
  %67 = icmp slt i32 %66, 0
  br i1 %67, label %.thread, label %68

68:                                               ; preds = %63
  %69 = getelementptr inbounds nuw i8, ptr %4, i64 16
  %70 = load i32, ptr %69, align 8, !tbaa !59
  %71 = sext i32 %70 to i64
  %72 = call i32 @av_dict_set_int(ptr noundef nonnull %2, ptr noundef nonnull @.str.18, i64 noundef %71, i32 noundef 0) #6
  %73 = icmp slt i32 %72, 0
  br i1 %73, label %.thread, label %74

74:                                               ; preds = %68
  %75 = call i32 @av_dict_set_int(ptr noundef nonnull %2, ptr noundef nonnull @.str.19, i64 noundef 1, i32 noundef 0) #6
  %76 = icmp slt i32 %75, 0
  br i1 %76, label %.thread, label %77

.thread:                                          ; preds = %63, %68, %74
  %.0.ph = phi i32 [ %75, %74 ], [ %72, %68 ], [ %66, %63 ]
  call void @av_dict_free(ptr noundef nonnull %2) #6
  br label %92

77:                                               ; preds = %74
  %78 = call i32 @avformat_init_output(ptr noundef nonnull %24, ptr noundef nonnull %2) #6
  call void @av_dict_free(ptr noundef nonnull %2) #6
  %79 = icmp slt i32 %78, 0
  br i1 %79, label %92, label %80

80:                                               ; preds = %77
  %81 = getelementptr inbounds nuw i8, ptr %48, i64 212
  %82 = load i32, ptr %81, align 4, !tbaa !77
  %83 = getelementptr inbounds nuw i8, ptr %48, i64 32
  %84 = load i32, ptr %83, align 8, !tbaa !78
  %85 = getelementptr inbounds nuw i8, ptr %48, i64 36
  %86 = load i32, ptr %85, align 4, !tbaa !79
  call void @avpriv_set_pts_info(ptr noundef %7, i32 noundef %82, i32 noundef %84, i32 noundef %86) #6
  %87 = load i32, ptr %40, align 8, !tbaa !70
  store i32 %87, ptr %38, align 8, !tbaa !70
  %88 = getelementptr inbounds nuw i8, ptr %24, i64 520
  %89 = load i32, ptr %88, align 8, !tbaa !80
  %90 = getelementptr inbounds nuw i8, ptr %0, i64 520
  store i32 %89, ptr %90, align 8, !tbaa !80
  store i32 0, ptr %40, align 8, !tbaa !70
  %91 = getelementptr inbounds nuw i8, ptr %24, i64 472
  store i32 -1, ptr %91, align 8, !tbaa !84
  br label %92

92:                                               ; preds = %.thread, %77, %55, %52, %47, %23, %19, %14, %1, %80, %13
  %.057 = phi i32 [ 0, %80 ], [ -22, %13 ], [ -22, %1 ], [ -1481985528, %14 ], [ %21, %19 ], [ %45, %23 ], [ -12, %47 ], [ %53, %52 ], [ %61, %55 ], [ %78, %77 ], [ %.0.ph, %.thread ]
  call void @llvm.lifetime.end.p0(i64 8, ptr nonnull %2) #6
  ret i32 %.057
}